Certificate:
    Data:
        Version: 3 (0x2)
        Serial Number: 4098 (0x1002)
        Signature Algorithm: sha256WithRSAEncryption
        Issuer: C=AU, ST=Some-State, O=Internet Widgits Pty Ltd, CN=vpnlabserver.com
        Validity
            Not Before: Dec 18 12:51:25 2020 GMT
            Not After : Dec 18 12:51:25 2021 GMT
        Subject: C=AU, ST=Some-State, O=Internet Widgits Pty Ltd, CN=vpnlabserver.com
        Subject Public Key Info:
            Public Key Algorithm: rsaEncryption
                RSA Public-Key: (1024 bit)
                Modulus:
                    00:d7:bd:19:20:5a:88:9e:8b:04:f1:ff:bb:14:80:
                    6c:dd:d9:1f:a5:07:8b:e6:7f:cf:26:b5:05:37:df:
                    d6:8b:53:10:1f:ae:88:f3:7a:55:16:d0:91:8f:24:
                    4b:e2:5f:e7:7a:d8:1f:cb:bd:0e:67:44:4b:e1:57:
                    dd:29:4f:c9:3e:26:84:68:2f:bb:34:97:db:c8:bd:
                    91:f3:c6:01:83:96:85:0a:17:23:a6:5f:88:a0:f3:
                    90:a9:e3:3d:25:11:fa:7d:d1:5d:af:16:14:07:3e:
                    61:e9:d1:da:65:3d:9e:e2:a7:71:5b:3b:ad:b9:8e:
                    c9:f1:c7:90:12:ca:44:20:79
                Exponent: 65537 (0x10001)
        X509v3 extensions:
            X509v3 Basic Constraints: 
                CA:FALSE
            Netscape Comment: 
                OpenSSL Generated Certificate
            X509v3 Subject Key Identifier: 
                B6:E8:9A:7B:6A:B7:88:6A:FD:F7:6F:C0:44:F6:F1:15:58:5B:F3:D1
            X509v3 Authority Key Identifier: 
                keyid:82:69:5F:7A:05:C7:49:A0:33:FE:39:78:52:03:C4:C9:32:BF:CC:58

    Signature Algorithm: sha256WithRSAEncryption
         27:9d:b8:bb:eb:8a:78:8c:57:d1:44:27:15:fb:5f:46:5d:32:
         29:26:c1:87:3d:40:1a:21:93:52:4f:35:74:04:05:9a:06:10:
         a8:97:69:95:4c:a6:7c:fe:9e:b5:4d:a4:bb:c7:34:c2:f7:e7:
         9f:ff:30:e4:c9:07:b6:d3:e9:a5:f4:be:d6:a8:ff:15:bf:fc:
         db:a9:23:a8:2c:15:ae:22:16:16:67:c5:d2:38:86:dc:df:af:
         78:b4:6e:27:40:29:5d:af:8e:f4:25:4e:a2:56:51:9f:a5:27:
         58:d8:e3:02:6e:ad:05:af:e5:67:f9:36:de:15:4b:ac:ed:af:
         79:3a
-----BEGIN CERTIFICATE-----
MIICsjCCAhugAwIBAgICEAIwDQYJKoZIhvcNAQELBQAwYDELMAkGA1UEBhMCQVUx
EzARBgNVBAgMClNvbWUtU3RhdGUxITAfBgNVBAoMGEludGVybmV0IFdpZGdpdHMg
UHR5IEx0ZDEZMBcGA1UEAwwQdnBubGFic2VydmVyLmNvbTAeFw0yMDEyMTgxMjUx
MjVaFw0yMTEyMTgxMjUxMjVaMGAxCzAJBgNVBAYTAkFVMRMwEQYDVQQIDApTb21l
LVN0YXRlMSEwHwYDVQQKDBhJbnRlcm5ldCBXaWRnaXRzIFB0eSBMdGQxGTAXBgNV
BAMMEHZwbmxhYnNlcnZlci5jb20wgZ8wDQYJKoZIhvcNAQEBBQADgY0AMIGJAoGB
ANe9GSBaiJ6LBPH/uxSAbN3ZH6UHi+Z/zya1BTff1otTEB+uiPN6VRbQkY8kS+Jf
53rYH8u9DmdES+FX3SlPyT4mhGgvuzSX28i9kfPGAYOWhQoXI6ZfiKDzkKnjPSUR
+n3RXa8WFAc+YenR2mU9nuKncVs7rbmOyfHHkBLKRCB5AgMBAAGjezB5MAkGA1Ud
EwQCMAAwLAYJYIZIAYb4QgENBB8WHU9wZW5TU0wgR2VuZXJhdGVkIENlcnRpZmlj
YXRlMB0GA1UdDgQWBBS26Jp7areIav33b8BE9vEVWFvz0TAfBgNVHSMEGDAWgBSC
aV96BcdJoDP+OXhSA8TJMr/MWDANBgkqhkiG9w0BAQsFAAOBgQAnnbi764p4jFfR
RCcV+19GXTIpJsGHPUAaIZNSTzV0BAWaBhCol2mVTKZ8/p61TaS7xzTC9+ef/zDk
yQe20+ml9L7WqP8Vv/zbqSOoLBWuIhYWZ8XSOIbc3694tG4nQCldr470JU6iVlGf
pSdY2OMCbq0Fr+Vn+TbeFUus7a95Og==
-----END CERTIFICATE-----
